target datalayout = "e-m:e-p270:32:32-p271:32:32-p272:64:64-i64:64-i128:128-f80:128-n8:16:32:64-S128"
target triple = "x86_64-pc-linux-gnu"

%struct.lv_i18n_lang_t = type { ptr, ptr, [6 x ptr], ptr }

@current_lang_pack = internal global ptr null, align 8
@current_lang = internal global ptr null, align 8

; Function Attrs: nounwind uwtable
define i32 @lv_i18n_set_locale(ptr noundef %0) #0 {
  %2 = alloca i32, align 4
  %3 = alloca ptr, align 8
  %4 = alloca i16, align 2
  %5 = alloca i32, align 4
  store ptr %0, ptr %3, align 8, !tbaa !3
  %6 = load ptr, ptr @current_lang_pack, align 8, !tbaa !3
  %7 = icmp eq ptr %6, null
  br i1 %7, label %8, label %9

8:                                                ; preds = %1
  store i32 -1, ptr %2, align 4
  br label %40

9:                                                ; preds = %1
  call void @llvm.lifetime.start.p0(i64 2, ptr %4) #4
  store i16 0, ptr %4, align 2, !tbaa !7
  br label %10

10:                                               ; preds = %35, %9
  %11 = load ptr, ptr @current_lang_pack, align 8, !tbaa !3
  %12 = load i16, ptr %4, align 2, !tbaa !7
  %13 = zext i16 %12 to i64
  %14 = getelementptr inbounds nuw ptr, ptr %11, i64 %13
  %15 = load ptr, ptr %14, align 8, !tbaa !3
  %16 = icmp ne ptr %15, null
  br i1 %16, label %17, label %38

17:                                               ; preds = %10
  %18 = load ptr, ptr @current_lang_pack, align 8, !tbaa !3
  %19 = load i16, ptr %4, align 2, !tbaa !7
  %20 = zext i16 %19 to i64
  %21 = getelementptr inbounds nuw ptr, ptr %18, i64 %20
  %22 = load ptr, ptr %21, align 8, !tbaa !3
  %23 = getelementptr inbounds nuw %struct.lv_i18n_lang_t, ptr %22, i32 0, i32 0
  %24 = load ptr, ptr %23, align 8, !tbaa !9
  %25 = load ptr, ptr %3, align 8, !tbaa !3
  %26 = call i32 @lv_strcmp(ptr noundef %24, ptr noundef %25)
  %27 = icmp eq i32 %26, 0
  br i1 %27, label %28, label %34

28:                                               ; preds = %17
  %29 = load ptr, ptr @current_lang_pack, align 8, !tbaa !3
  %30 = load i16, ptr %4, align 2, !tbaa !7
  %31 = zext i16 %30 to i64
  %32 = getelementptr inbounds nuw ptr, ptr %29, i64 %31
  %33 = load ptr, ptr %32, align 8, !tbaa !3
  store ptr %33, ptr @current_lang, align 8, !tbaa !3
  store i32 0, ptr %2, align 4
  store i32 1, ptr %5, align 4
  br label %39

34:                                               ; preds = %17
  br label %35

35:                                               ; preds = %34
  %36 = load i16, ptr %4, align 2, !tbaa !7
  %37 = add i16 %36, 1
  store i16 %37, ptr %4, align 2, !tbaa !7
  br label %10, !llvm.loop !11

38:                                               ; preds = %10
  store i32 -1, ptr %2, align 4
  store i32 1, ptr %5, align 4
  br label %39

39:                                               ; preds = %38, %28
  call void @llvm.lifetime.end.p0(i64 2, ptr %4) #4
  br label %40

40:                                               ; preds = %39, %8
  %41 = load i32, ptr %2, align 4
  ret i32 %41
}