; Function Attrs: nounwind uwtable
define range(i32 -1, 1) i32 @lv_i18n_set_locale(ptr noundef %0) local_unnamed_addr #2 {
  %2 = load ptr, ptr @current_lang_pack, align 8, !tbaa !3
  %3 = icmp eq ptr %2, null
  br i1 %3, label %.loopexit, label %.preheader

.preheader:                                       ; preds = %1
  %4 = load ptr, ptr %2, align 8, !tbaa !3
  %.not8 = icmp eq ptr %4, null
  br i1 %.not8, label %.loopexit, label %.lr.ph.preheader

.lr.ph.preheader:                                 ; preds = %.preheader
  %5 = load ptr, ptr %4, align 8, !tbaa !7
  %6 = tail call i32 @lv_strcmp(ptr noundef %5, ptr noundef %0) #7
  %7 = icmp eq i32 %6, 0
  br i1 %7, label %.lr.ph._crit_edge, label %.lr.ph14

.lr.ph14:                                         ; preds = %.lr.ph.preheader, %.lr.ph
  %.0913 = phi i16 [ %8, %.lr.ph ], [ 0, %.lr.ph.preheader ]
  %8 = add i16 %.0913, 1
  %9 = load ptr, ptr @current_lang_pack, align 8, !tbaa !3
  %10 = zext i16 %8 to i64
  %11 = getelementptr inbounds nuw ptr, ptr %9, i64 %10
  %12 = load ptr, ptr %11, align 8, !tbaa !3
  %.not = icmp eq ptr %12, null
  br i1 %.not, label %.loopexit, label %.lr.ph, !llvm.loop !9

.lr.ph:                                           ; preds = %.lr.ph14
  %13 = load ptr, ptr %12, align 8, !tbaa !7
  %14 = tail call i32 @lv_strcmp(ptr noundef %13, ptr noundef %0) #7
  %15 = icmp eq i32 %14, 0
  br i1 %15, label %.lr.ph._crit_edge, label %.lr.ph14, !llvm.loop !9

.lr.ph._crit_edge:                                ; preds = %.lr.ph, %.lr.ph.preheader
  %.lcssa = phi i64 [ 0, %.lr.ph.preheader ], [ %10, %.lr.ph ]
  %16 = load ptr, ptr @current_lang_pack, align 8, !tbaa !3
  %17 = getelementptr inbounds nuw ptr, ptr %16, i64 %.lcssa
  %18 = load ptr, ptr %17, align 8, !tbaa !3
  store ptr %18, ptr @current_lang, align 8, !tbaa !3
  br label %.loopexit

.loopexit:                                        ; preds = %.lr.ph14, %.preheader, %.lr.ph._crit_edge, %1
  %.05 = phi i32 [ -1, %1 ], [ 0, %.lr.ph._crit_edge ], [ -1, %.preheader ], [ -1, %.lr.ph14 ]
  ret i32 %.05
}